target datalayout = "e-m:e-p270:32:32-p271:32:32-p272:64:64-i64:64-i128:128-f80:128-n8:16:32:64-S128"
target triple = "x86_64-pc-linux-gnu"

%struct.pmix_value = type { i16, %union.anon }
%union.anon = type { %struct.pmix_envar_t }
%struct.pmix_envar_t = type { ptr, ptr, i8 }
%struct.pmix_info = type { [512 x i8], i32, %struct.pmix_value }

; Function Attrs: nounwind uwtable
define i32 @PMIx_Info_get_size(ptr noundef %0, ptr noundef %1) #0 {
  %3 = alloca i32, align 4
  %4 = alloca ptr, align 8
  %5 = alloca ptr, align 8
  %6 = alloca i32, align 4
  %7 = alloca i64, align 8
  %8 = alloca i32, align 4
  store ptr %0, ptr %4, align 8, !tbaa !136
  store ptr %1, ptr %5, align 8, !tbaa !56
  call void @llvm.lifetime.start.p0(i64 4, ptr %6) #15
  call void @llvm.lifetime.start.p0(i64 8, ptr %7) #15
  %9 = load ptr, ptr %4, align 8, !tbaa !136
  %10 = getelementptr inbounds nuw %struct.pmix_info, ptr %9, i32 0, i32 2
  %11 = load ptr, ptr %5, align 8, !tbaa !56
  %12 = call i32 @PMIx_Value_get_size(ptr noundef %10, ptr noundef %11)
  store i32 %12, ptr %6, align 4, !tbaa !31
  %13 = load i32, ptr %6, align 4, !tbaa !31
  %14 = icmp ne i32 0, %13
  br i1 %14, label %15, label %17

15:                                               ; preds = %2
  %16 = load i32, ptr %6, align 4, !tbaa !31
  store i32 %16, ptr %3, align 4
  store i32 1, ptr %8, align 4
  br label %38

17:                                               ; preds = %2
  %18 = load ptr, ptr %4, align 8, !tbaa !136
  %19 = getelementptr inbounds nuw %struct.pmix_info, ptr %18, i32 0, i32 0
  %20 = getelementptr inbounds [512 x i8], ptr %19, i64 0, i64 0
  %21 = call i64 @strnlen(ptr noundef %20, i64 noundef 511) #17
  store i64 %21, ptr %7, align 8, !tbaa !58
  %22 = load i64, ptr %7, align 8, !tbaa !58
  %23 = icmp eq i64 511, %22
  br i1 %23, label %24, label %28

24:                                               ; preds = %17
  %25 = load ptr, ptr %5, align 8, !tbaa !56
  %26 = load i64, ptr %25, align 8, !tbaa !58
  %27 = add i64 %26, 511
  store i64 %27, ptr %25, align 8, !tbaa !58
  br label %34

28:                                               ; preds = %17
  %29 = load i64, ptr %7, align 8, !tbaa !58
  %30 = add i64 %29, 1
  %31 = load ptr, ptr %5, align 8, !tbaa !56
  %32 = load i64, ptr %31, align 8, !tbaa !58
  %33 = add i64 %32, %30
  store i64 %33, ptr %31, align 8, !tbaa !58
  br label %34

34:                                               ; preds = %28, %24
  %35 = load ptr, ptr %5, align 8, !tbaa !56
  %36 = load i64, ptr %35, align 8, !tbaa !58
  %37 = add i64 %36, 552
  store i64 %37, ptr %35, align 8, !tbaa !58
  store i32 0, ptr %3, align 4
  store i32 1, ptr %8, align 4
  br label %38

38:                                               ; preds = %34, %15
  call void @llvm.lifetime.end.p0(i64 8, ptr %7) #15
  call void @llvm.lifetime.end.p0(i64 4, ptr %6) #15
  %39 = load i32, ptr %3, align 4
  ret i32 %39
}